; Function Attrs: mustprogress nounwind uwtable
define internal void @_ZN12_GLOBAL__N_117CallReturnHandler15markPhysRegUsedEN4llvm10MCRegisterE(ptr noundef nonnull readonly align 8 captures(none) dereferenceable(48) %0, i32 %1) unnamed_addr #1 align 2 {
  %3 = alloca %"class.llvm::MachineOperand", align 8
  %4 = getelementptr inbounds nuw i8, ptr %0, i64 32
  call void @llvm.lifetime.start.p0(i64 32, ptr nonnull %3)
  %5 = getelementptr inbounds nuw i8, ptr %0, i64 40
  %6 = load ptr, ptr %5, align 8
  %7 = load ptr, ptr %4, align 8
  %8 = getelementptr inbounds nuw i8, ptr %3, i64 8
  store ptr null, ptr %8, align 8, !alias.scope !138
  %9 = getelementptr inbounds nuw i8, ptr %3, i64 4
  store i32 %1, ptr %9, align 4, !alias.scope !138
  %10 = getelementptr inbounds nuw i8, ptr %3, i64 16
  call void @llvm.memset.p0.i64(ptr noundef nonnull align 8 dereferenceable(16) %10, i8 0, i64 16, i1 false), !alias.scope !138
  store i32 50331648, ptr %3, align 8, !alias.scope !138
  call void @_ZN4llvm12MachineInstr10addOperandERNS_15MachineFunctionERKNS_14MachineOperandE(ptr noundef nonnull align 8 dereferenceable(70) %6, ptr noundef nonnull align 8 dereferenceable(1041) %7, ptr noundef nonnull align 8 dereferenceable(32) %3) #15
  call void @llvm.lifetime.end.p0(i64 32, ptr nonnull %3)
  ret void
}